; Function Attrs: nounwind uwtable
define dso_local void @free_node(ptr noundef captures(address_is_null) %0) local_unnamed_addr #0 {
  %.not = icmp eq ptr %0, null
  br i1 %.not, label %4, label %2

2:                                                ; preds = %1
  %3 = getelementptr inbounds nuw i8, ptr %0, i64 8
  tail call fastcc void @attrs_free(ptr noundef nonnull %3)
  tail call void @free(ptr noundef nonnull %0) #20
  br label %4

4:                                                ; preds = %1, %2
  ret void
}